target datalayout = "e-m:e-p270:32:32-p271:32:32-p272:64:64-i64:64-i128:128-f80:128-n8:16:32:64-S128"
target triple = "x86_64-pc-linux-gnu"

@ros_handle = internal global ptr null, align 8
@protocol_table = internal global ptr null, align 8

; Function Attrs: null_pointer_is_valid sspstrong uwtable
define hidden void @register_ros_protocol_info(ptr noundef %0, ptr noundef %1, i32 noundef %2, ptr noundef %3, i1 noundef zeroext %4) #0 {
  %6 = alloca ptr, align 8
  %7 = alloca ptr, align 8
  %8 = alloca i32, align 4
  %9 = alloca ptr, align 8
  %10 = alloca i8, align 1
  store ptr %0, ptr %6, align 8
  store ptr %1, ptr %7, align 8
  store i32 %2, ptr %8, align 4
  store ptr %3, ptr %9, align 8
  %11 = zext i1 %4 to i8
  store i8 %11, ptr %10, align 1
  %12 = load ptr, ptr @protocol_table, align 8
  %13 = load ptr, ptr %6, align 8
  %14 = load ptr, ptr %7, align 8
  %15 = call ptr @wmem_map_insert(ptr noundef %12, ptr noundef %13, ptr noundef %14)
  %16 = load i8, ptr %10, align 1, !range !6, !noundef !7
  %17 = trunc i8 %16 to i1
  br i1 %17, label %23, label %18

18:                                               ; preds = %5
  %19 = load ptr, ptr %6, align 8
  %20 = load ptr, ptr @ros_handle, align 8
  %21 = load i32, ptr %8, align 4
  %22 = load ptr, ptr %9, align 8
  call void @register_ber_oid_dissector_handle(ptr noundef %19, ptr noundef %20, i32 noundef %21, ptr noundef %22)
  br label %23

23:                                               ; preds = %18, %5
  ret void
}