; Function Attrs: null_pointer_is_valid sspstrong uwtable
define hidden void @register_ros_protocol_info(ptr noundef %0, ptr noundef %1, i32 noundef %2, ptr noundef %3, i1 noundef zeroext %4) local_unnamed_addr #0 {
  %6 = load ptr, ptr @protocol_table, align 8
  %7 = tail call ptr @wmem_map_insert(ptr noundef %6, ptr noundef %0, ptr noundef %1)
  br i1 %4, label %10, label %8

8:                                                ; preds = %5
  %9 = load ptr, ptr @ros_handle, align 8
  tail call void @register_ber_oid_dissector_handle(ptr noundef %0, ptr noundef %9, i32 noundef %2, ptr noundef %3)
  br label %10

10:                                               ; preds = %8, %5
  ret void
}